; Function Attrs: nounwind uwtable
define dso_local void @_ZTv0_n24_NSt3__19strstreamD1Ev(ptr noundef %0) unnamed_addr #15 align 2 personality ptr @__gxx_personality_v0 {
  %2 = load ptr, ptr %0, align 8, !tbaa !4
  %3 = getelementptr inbounds i8, ptr %2, i64 -24
  %4 = load i64, ptr %3, align 8
  %5 = getelementptr inbounds i8, ptr %0, i64 %4
  store ptr getelementptr inbounds nuw inrange(-24, 16) (i8, ptr @_ZTVNSt3__19strstreamE, i64 24), ptr %5, align 8, !tbaa !4
  %6 = getelementptr inbounds nuw i8, ptr %5, i64 120
  store ptr getelementptr inbounds nuw inrange(-24, 16) (i8, ptr @_ZTVNSt3__19strstreamE, i64 104), ptr %6, align 8, !tbaa !4
  %7 = getelementptr inbounds nuw i8, ptr %5, i64 16
  store ptr getelementptr inbounds nuw inrange(-24, 16) (i8, ptr @_ZTVNSt3__19strstreamE, i64 64), ptr %7, align 8, !tbaa !4
  %8 = getelementptr inbounds nuw i8, ptr %5, i64 24
  store ptr getelementptr inbounds nuw inrange(-16, 112) (i8, ptr @_ZTVNSt3__112strstreambufE, i64 16), ptr %8, align 8, !tbaa !4
  %9 = getelementptr inbounds nuw i8, ptr %5, i64 40
  %10 = load ptr, ptr %9, align 8, !tbaa !23
  %.not.i.i.i = icmp eq ptr %10, null
  br i1 %.not.i.i.i, label %_ZNSt3__19strstreamD1Ev.exit, label %11

11:                                               ; preds = %1
  %12 = getelementptr inbounds nuw i8, ptr %5, i64 88
  %13 = load i32, ptr %12, align 8, !tbaa !7
  %14 = and i32 %13, 9
  %or.cond.i.i.i = icmp eq i32 %14, 1
  br i1 %or.cond.i.i.i, label %15, label %_ZNSt3__19strstreamD1Ev.exit

15:                                               ; preds = %11
  %16 = getelementptr inbounds nuw i8, ptr %5, i64 112
  %17 = load ptr, ptr %16, align 8, !tbaa !19
  %.not3.i.i.i = icmp eq ptr %17, null
  br i1 %.not3.i.i.i, label %19, label %18

18:                                               ; preds = %15
  invoke void %17(ptr noundef nonnull %10)
          to label %_ZNSt3__19strstreamD1Ev.exit unwind label %20

19:                                               ; preds = %15
  tail call void @_ZdaPv(ptr noundef nonnull %10) #20
  br label %_ZNSt3__19strstreamD1Ev.exit

20:                                               ; preds = %18
  %21 = landingpad { ptr, i32 }
          catch ptr null
  %22 = extractvalue { ptr, i32 } %21, 0
  tail call void @__clang_call_terminate(ptr %22) #21
  unreachable

_ZNSt3__19strstreamD1Ev.exit:                     ; preds = %1, %11, %18, %19
  store ptr getelementptr inbounds nuw inrange(-16, 112) (i8, ptr @_ZTVNSt3__115basic_streambufIcNS_11char_traitsIcEEEE, i64 16), ptr %8, align 8, !tbaa !4
  %23 = getelementptr inbounds nuw i8, ptr %5, i64 32
  tail call void @_ZNSt3__16localeD1Ev(ptr noundef nonnull align 8 dereferenceable(8) %23) #18
  tail call void @_ZNSt3__114basic_iostreamIcNS_11char_traitsIcEEED2Ev(ptr noundef nonnull align 8 dereferenceable(120) %5, ptr noundef nonnull getelementptr inbounds nuw (i8, ptr @_ZTTNSt3__19strstreamE, i64 8)) #18
  tail call void @_ZNSt3__19basic_iosIcNS_11char_traitsIcEEED2Ev(ptr noundef nonnull align 8 dereferenceable(148) %6) #18
  ret void
}